; Function Attrs: mustprogress nounwind uwtable
define hidden void @_ZN8G1PolicyD2Ev(ptr nocapture noundef nonnull align 8 dereferenceable(552) %0) unnamed_addr #1 align 2 {
  store ptr getelementptr inbounds inrange(-16, 16) (i8, ptr @_ZTV8G1Policy, i64 16), ptr %0, align 8
  %2 = getelementptr inbounds i8, ptr %0, i64 80
  %3 = load ptr, ptr %2, align 8
  %4 = icmp eq ptr %3, null
  br i1 %4, label %9, label %5

5:                                                ; preds = %1
  %6 = load ptr, ptr %3, align 8
  %7 = getelementptr inbounds i8, ptr %6, i64 16
  %8 = load ptr, ptr %7, align 8
  tail call void %8(ptr noundef nonnull align 8 dereferenceable(40) %3) #18
  br label %9

9:                                                ; preds = %5, %1
  ret void
}